; ModuleID = 'source-C-CXX/57/266.c'
source_filename = "source-C-CXX/57/266.c"
target datalayout = "e-m:e-p270:32:32-p271:32:32-p272:64:64-i64:64-f80:128-n8:16:32:64-S128"
target triple = "x86_64-pc-linux-gnu"

@.str = private unnamed_addr constant [4 x i8] c"%d\0A\00", align 1
@str = private unnamed_addr constant [2 x i8] c"1\00", align 1
@str.4 = private unnamed_addr constant [2 x i8] c"0\00", align 1

; Function Attrs: nounwind sspstrong uwtable
define dso_local i32 @main() local_unnamed_addr #0 {
  %1 = alloca i32, align 4
  %2 = alloca [1000 x i8], align 16
  %3 = bitcast i32* %1 to i8*
  call void @llvm.lifetime.start.p0i8(i64 4, i8* nonnull %3) #6
  %4 = call i32 (i8*, ...) @__isoc99_scanf(i8* getelementptr inbounds ([4 x i8], [4 x i8]* @.str, i64 0, i64 0), i32* nonnull %1)
  %5 = getelementptr inbounds [1000 x i8], [1000 x i8]* %2, i64 0, i64 0
  %6 = load i32, i32* %1, align 4, !tbaa !5
  %7 = icmp sgt i32 %6, 0
  br i1 %7, label %8, label %53

8:                                                ; preds = %0, %47
  %9 = phi i32 [ %50, %47 ], [ 0, %0 ]
  call void @llvm.lifetime.start.p0i8(i64 1000, i8* nonnull %5) #6
  %10 = call i32 (i8*, ...) bitcast (i32 (...)* @gets to i32 (i8*, ...)*)(i8* nonnull %5) #6
  %11 = call i64 @strlen(i8* noundef nonnull %5) #7
  %12 = load i8, i8* %5, align 16, !tbaa !9
  %13 = add i8 %12, -48
  %14 = icmp ult i8 %13, 10
  br i1 %14, label %47, label %15

15:                                               ; preds = %8
  %16 = trunc i64 %11 to i32
  %17 = icmp sgt i32 %16, 0
  br i1 %17, label %18, label %47

18:                                               ; preds = %15
  %19 = and i64 %11, 4294967295
  %20 = icmp ne i8 %12, 95
  %21 = add i8 %12, -97
  %22 = icmp ugt i8 %21, 25
  %23 = and i1 %20, %22
  %24 = add i8 %12, -65
  %25 = icmp ugt i8 %24, 25
  %26 = and i1 %25, %23
  %27 = add i8 %12, -48
  %28 = icmp ugt i8 %27, 9
  %29 = select i1 %26, i1 %28, i1 false
  br i1 %29, label %47, label %30

30:                                               ; preds = %18, %33
  %31 = phi i64 [ %46, %33 ], [ 1, %18 ]
  %32 = icmp eq i64 %31, %19
  br i1 %32, label %47, label %33, !llvm.loop !10

33:                                               ; preds = %30
  %34 = getelementptr inbounds [1000 x i8], [1000 x i8]* %2, i64 0, i64 %31
  %35 = load i8, i8* %34, align 1, !tbaa !9
  %36 = icmp ne i8 %35, 95
  %37 = add i8 %35, -97
  %38 = icmp ugt i8 %37, 25
  %39 = and i1 %36, %38
  %40 = add i8 %35, -65
  %41 = icmp ugt i8 %40, 25
  %42 = and i1 %41, %39
  %43 = add i8 %35, -48
  %44 = icmp ugt i8 %43, 9
  %45 = select i1 %42, i1 %44, i1 false
  %46 = add nuw nsw i64 %31, 1
  br i1 %45, label %47, label %30

47:                                               ; preds = %33, %30, %18, %15, %8
  %48 = phi i8* [ getelementptr inbounds ([2 x i8], [2 x i8]* @str.4, i64 0, i64 0), %8 ], [ getelementptr inbounds ([2 x i8], [2 x i8]* @str, i64 0, i64 0), %15 ], [ getelementptr inbounds ([2 x i8], [2 x i8]* @str.4, i64 0, i64 0), %18 ], [ getelementptr inbounds ([2 x i8], [2 x i8]* @str, i64 0, i64 0), %30 ], [ getelementptr inbounds ([2 x i8], [2 x i8]* @str.4, i64 0, i64 0), %33 ]
  %49 = call i32 @puts(i8* nonnull dereferenceable(1) %48)
  call void @llvm.lifetime.end.p0i8(i64 1000, i8* nonnull %5) #6
  %50 = add nuw nsw i32 %9, 1
  %51 = load i32, i32* %1, align 4, !tbaa !5
  %52 = icmp slt i32 %50, %51
  br i1 %52, label %8, label %53, !llvm.loop !12

53:                                               ; preds = %47, %0
  call void @llvm.lifetime.end.p0i8(i64 4, i8* nonnull %3) #6
  ret i32 0
}

; Function Attrs: argmemonly mustprogress nofree nosync nounwind willreturn
declare void @llvm.lifetime.start.p0i8(i64 immarg, i8* nocapture) #1

; Function Attrs: nofree nounwind
declare noundef i32 @__isoc99_scanf(i8* nocapture noundef readonly, ...) local_unnamed_addr #2

declare i32 @gets(...) local_unnamed_addr #3

; Function Attrs: argmemonly mustprogress nofree nounwind readonly willreturn
declare i64 @strlen(i8* nocapture) local_unnamed_addr #4

; Function Attrs: argmemonly mustprogress nofree nosync nounwind willreturn
declare void @llvm.lifetime.end.p0i8(i64 immarg, i8* nocapture) #1

; Function Attrs: nofree nounwind
declare noundef i32 @puts(i8* nocapture noundef readonly) local_unnamed_addr #5


!llvm.module.flags = !{!0, !1, !2, !3}
!llvm.ident = !{!4}

!0 = !{i32 1, !"wchar_size", i32 4}
!1 = !{i32 7, !"PIC Level", i32 2}
!2 = !{i32 7, !"PIE Level", i32 2}
!3 = !{i32 7, !"uwtable", i32 1}
!4 = !{!"clang version 13.0.0"}
!5 = !{!6, !6, i64 0}
!6 = !{!"int", !7, i64 0}
!7 = !{!"omnipotent char", !8, i64 0}
!8 = !{!"Simple C/C++ TBAA"}
!9 = !{!7, !7, i64 0}
!10 = distinct !{!10, !11}
!11 = !{!"llvm.loop.mustprogress"}
!12 = distinct !{!12, !11}
